target datalayout = "e-m:e-p270:32:32-p271:32:32-p272:64:64-i64:64-i128:128-f80:128-n8:16:32:64-S128"
target triple = "x86_64-pc-linux-gnu"

@.str = private unnamed_addr constant [20 x i8] c"[BRUSH] change size\00", align 1
@.str.1 = private unnamed_addr constant [24 x i8] c"[BRUSH] change hardness\00", align 1
@.str.2 = private unnamed_addr constant [23 x i8] c"[BRUSH] change opacity\00", align 1

; Function Attrs: nounwind uwtable
define internal ptr @_brush_setup_mouse_actions(ptr noundef %0) #0 {
  %2 = alloca ptr, align 8
  %3 = alloca ptr, align 8
  store ptr %0, ptr %2, align 8, !tbaa !10
  call void @llvm.lifetime.start.p0(i64 8, ptr %3) #14
  store ptr null, ptr %3, align 8, !tbaa !13
  %4 = load ptr, ptr %3, align 8, !tbaa !13
  %5 = call ptr @dcgettext(ptr noundef null, ptr noundef @.str, i32 noundef 5) #14
  %6 = call ptr @dt_mouse_action_create_simple(ptr noundef %4, i32 noundef 3, i32 noundef 0, ptr noundef %5)
  store ptr %6, ptr %3, align 8, !tbaa !13
  %7 = load ptr, ptr %3, align 8, !tbaa !13
  %8 = call ptr @dcgettext(ptr noundef null, ptr noundef @.str.1, i32 noundef 5) #14
  %9 = call ptr @dt_mouse_action_create_simple(ptr noundef %7, i32 noundef 3, i32 noundef 1, ptr noundef %8)
  store ptr %9, ptr %3, align 8, !tbaa !13
  %10 = load ptr, ptr %3, align 8, !tbaa !13
  %11 = call ptr @dcgettext(ptr noundef null, ptr noundef @.str.2, i32 noundef 5) #14
  %12 = call ptr @dt_mouse_action_create_simple(ptr noundef %10, i32 noundef 3, i32 noundef 4, ptr noundef %11)
  store ptr %12, ptr %3, align 8, !tbaa !13
  %13 = load ptr, ptr %3, align 8, !tbaa !13
  call void @llvm.lifetime.end.p0(i64 8, ptr %3) #14
  ret ptr %13
}