; Function Attrs: nounwind uwtable
define internal ptr @_brush_setup_mouse_actions(ptr readnone captures(none) %0) #1 {
  %2 = tail call ptr @dcgettext(ptr noundef null, ptr noundef nonnull @.str, i32 noundef 5) #19
  %3 = tail call ptr @dt_mouse_action_create_simple(ptr noundef null, i32 noundef 3, i32 noundef 0, ptr noundef %2) #19
  %4 = tail call ptr @dcgettext(ptr noundef null, ptr noundef nonnull @.str.1, i32 noundef 5) #19
  %5 = tail call ptr @dt_mouse_action_create_simple(ptr noundef %3, i32 noundef 3, i32 noundef 1, ptr noundef %4) #19
  %6 = tail call ptr @dcgettext(ptr noundef null, ptr noundef nonnull @.str.2, i32 noundef 5) #19
  %7 = tail call ptr @dt_mouse_action_create_simple(ptr noundef %5, i32 noundef 3, i32 noundef 4, ptr noundef %6) #19
  ret ptr %7
}